; Function Attrs: mustprogress nofree norecurse nounwind memory(argmem: readwrite) uwtable
define noundef zeroext i1 @_ZN5folly6fibers13SemaphoreBase15try_wait_commonEl(ptr noundef nonnull align 8 captures(none) dereferenceable(40) %0, i64 noundef %1) local_unnamed_addr #8 align 2 personality ptr @__gxx_personality_v0 {
  %3 = getelementptr inbounds nuw i8, ptr %0, i64 8
  %4 = load atomic i64, ptr %3 acquire, align 8
  %.not = icmp slt i64 %4, %1
  br i1 %.not, label %_ZNSt13__atomic_baseIlE21compare_exchange_weakERllSt12memory_orderS2_.exit.thread, label %.lr.ph

.lr.ph:                                           ; preds = %2, %.lr.ph
  %.07 = phi i64 [ %8, %.lr.ph ], [ %4, %2 ]
  %5 = sub nsw i64 %.07, %1
  %6 = cmpxchg weak ptr %3, i64 %.07, i64 %5 release acquire, align 8
  %7 = extractvalue { i64, i1 } %6, 1
  %8 = extractvalue { i64, i1 } %6, 0
  %.not10 = icmp slt i64 %8, %1
  %or.cond = select i1 %7, i1 true, i1 %.not10
  br i1 %or.cond, label %_ZNSt13__atomic_baseIlE21compare_exchange_weakERllSt12memory_orderS2_.exit.thread, label %.lr.ph

_ZNSt13__atomic_baseIlE21compare_exchange_weakERllSt12memory_orderS2_.exit.thread: ; preds = %.lr.ph, %2
  %.lcssa = phi i1 [ false, %2 ], [ %7, %.lr.ph ]
  ret i1 %.lcssa
}